Certificate:
    Data:
        Version: 3 (0x2)
        Serial Number: 4096 (0x1000)
        Signature Algorithm: sha256WithRSAEncryption
        Issuer: C=CA, ST=Alberta, L=Edmonton, O=Sofa King Inc., OU=Dixie Normous Dept., CN=Annie Rection/emailAddress=annierection@sofaking.ca
        Validity
            Not Before: Nov 22 02:16:21 2022 GMT
            Not After : Nov 19 02:16:21 2032 GMT
        Subject: C=CN, ST=Ontario, L=Ottawa, O=ravishankar2022 Inc., CN=www.ravishankar2022.ca
        Subject Public Key Info:
            Public Key Algorithm: rsaEncryption
                RSA Public-Key: (4096 bit)
                Modulus:
                    00:ab:e9:fb:72:fb:5d:9f:2b:5e:08:4a:e9:80:9e:
                    02:d9:c0:19:ce:2a:1f:c5:03:d1:62:d7:b0:90:a1:
                    ca:29:45:f4:22:01:9e:1e:41:2f:29:8e:99:e9:60:
                    f6:35:bd:e0:06:71:6d:ab:95:f2:db:d8:3d:8f:76:
                    20:80:ce:f5:0a:23:84:96:17:46:ad:eb:63:d6:95:
                    23:16:69:d1:74:3e:1b:e5:b4:68:3d:44:7c:f1:29:
                    12:87:7d:56:24:0c:29:e3:df:99:f9:79:42:e8:3c:
                    28:6b:78:2b:ca:af:23:c1:f7:f7:c8:fc:28:ec:1a:
                    0f:79:bc:43:5a:c5:7e:d2:f9:1b:86:7a:43:64:3d:
                    85:e6:05:0d:bd:04:c1:fd:56:24:1a:30:ea:ee:08:
                    67:6a:a8:27:a2:63:e0:cb:45:ff:06:da:c8:bc:24:
                    af:17:e9:47:be:ff:af:61:12:44:f7:c3:e6:a4:bd:
                    9e:9f:db:f8:89:37:9a:d2:09:f6:e7:21:0b:1f:fb:
                    ee:ee:57:10:52:44:fa:0e:20:53:29:3a:37:36:47:
                    7e:d4:ef:9b:f0:93:a9:87:85:2b:99:9a:38:eb:ce:
                    2d:b9:d1:d6:61:d9:55:d4:73:f3:6b:e6:a8:2b:93:
                    a1:c7:53:cc:29:49:02:1e:00:8f:0e:ec:0e:d9:76:
                    d5:e2:d4:30:9b:e6:31:6a:40:e5:7c:36:60:aa:8e:
                    47:e2:13:4a:fd:74:06:14:15:11:e6:be:54:4c:86:
                    2d:c4:0b:b0:7d:db:fb:a7:b1:d5:84:1a:5f:d9:47:
                    3b:09:1c:05:5b:97:50:27:10:62:79:a4:08:31:43:
                    75:5c:32:ae:5b:d7:21:af:c7:31:f2:d6:fc:6b:ad:
                    1e:4c:4d:d3:6d:47:b7:4f:3d:1e:b4:39:74:da:0a:
                    47:a7:9c:92:d9:64:ff:db:4a:44:3f:14:bd:cb:79:
                    e9:5b:32:ce:38:a4:fa:eb:cf:ea:20:98:11:5a:ed:
                    88:03:2b:af:8c:32:81:cc:c0:90:bf:0c:83:24:e2:
                    e6:f5:de:06:aa:b7:16:31:82:95:d2:6e:22:46:4a:
                    0d:f1:a5:75:f0:39:16:17:f0:72:ab:e0:04:91:20:
                    77:30:e2:3f:6f:d8:52:a2:48:b2:00:58:1a:a6:2a:
                    d7:50:c0:05:96:81:2a:a7:dc:af:00:38:e7:50:2e:
                    a0:c4:3d:d4:cb:30:9f:8f:21:fb:8c:45:a5:ad:98:
                    59:d6:09:dc:8b:60:a7:58:d7:13:0f:6d:fe:fe:00:
                    78:b3:e5:6f:d3:0d:37:a5:f9:ee:cd:9e:53:ea:04:
                    d3:67:01:c5:96:72:07:55:cb:34:fe:d5:94:ba:9e:
                    6d:3a:05
                Exponent: 65537 (0x10001)
        X509v3 extensions:
            X509v3 Basic Constraints: 
                CA:FALSE
            Netscape Comment: 
                OpenSSL Generated Certificate
            X509v3 Subject Key Identifier: 
                F0:AD:C1:29:2B:F9:58:17:7D:0E:23:D6:60:1A:20:7C:79:C7:D3:77
            X509v3 Authority Key Identifier: 
                keyid:06:AB:82:78:1A:5D:D2:FE:1D:2E:B4:D7:54:F6:68:42:48:66:FD:C5

    Signature Algorithm: sha256WithRSAEncryption
         75:79:68:2b:0b:b7:7a:0d:d6:eb:93:e0:29:07:00:ae:09:f1:
         dc:cd:a3:b7:60:eb:89:55:77:06:7f:e4:4b:b8:01:48:3f:98:
         d9:42:d8:c9:3e:75:7e:6e:d6:dd:12:c8:db:ce:d4:a1:ec:0f:
         31:f7:c4:f4:37:a7:da:37:92:72:ec:8d:17:21:c5:55:07:16:
         22:c0:39:f2:82:b8:de:85:36:fa:96:ad:b6:7a:25:92:41:fd:
         6a:57:dc:49:e6:62:6e:65:5c:65:21:1a:e7:5b:6c:cc:da:ff:
         9a:b8:2a:e2:d5:1e:36:75:e1:2a:0d:29:cc:d9:ab:97:76:73:
         f0:8e:bf:89:1b:19:9e:ae:3a:78:45:67:7d:65:c1:96:7d:d8:
         31:cc:a7:29:5d:d7:d0:77:4e:37:ac:55:6c:05:bf:2e:7d:0d:
         b6:7c:2a:e9:a2:5d:56:89:c3:30:93:de:f9:ec:09:bf:26:9e:
         dc:24:eb:f6:33:e9:c9:8b:e7:5e:15:a3:42:2e:47:47:65:e9:
         0d:20:f9:cf:43:b2:d1:34:a9:e5:fc:98:37:98:da:28:10:35:
         9e:71:69:f9:b3:8e:e2:65:d4:cf:0d:43:b4:78:f9:4f:a4:77:
         6a:83:97:cd:02:59:3d:2d:0b:8f:67:7f:9b:74:22:65:a0:a1:
         98:ec:43:7b:be:b7:1d:ea:86:ed:65:9c:3e:75:4d:61:bf:03:
         1f:6b:a0:7d:bd:7f:fd:32:ca:51:e5:f5:e2:0d:71:c6:ab:2d:
         e5:96:d2:ca:2d:31:6a:eb:4c:49:18:d1:3d:c1:c6:79:7e:70:
         6a:f4:61:94:1c:5f:8b:1b:26:75:8a:05:ff:38:73:b9:8a:2d:
         fc:d5:12:97:43:33:55:7a:d2:b5:9b:61:14:71:44:24:05:a6:
         dc:c1:df:25:86:95:8d:5e:96:43:1b:34:e1:1c:f0:8f:1f:64:
         6b:79:0d:8a:85:9a:fc:d6:07:5c:b9:57:5b:ae:2a:15:49:8c:
         b3:a8:e4:eb:f3:2b:55:d0:09:ee:4d:be:33:d8:4c:3b:ef:a7:
         d1:c5:27:b0:55:61:40:4a:d2:c9:ba:72:3a:45:72:56:df:c9:
         a7:7b:c1:6a:8f:a4:b1:b1:71:ca:77:d7:5a:9c:ed:12:d2:b3:
         22:0b:d8:57:b4:ba:87:6a:e0:11:9e:b4:7f:d9:ba:0b:e1:f6:
         98:12:ef:8f:f6:57:07:69:e8:99:40:ed:a0:06:47:43:e6:10:
         0f:bb:f5:62:07:c2:b9:97:54:a7:09:fa:c7:06:00:51:0c:2d:
         ed:b0:62:22:dd:cf:e8:9c:b5:f1:76:a3:24:aa:6a:e3:a8:4b:
         7b:b5:c0:a9:e7:1e:9f:b9
-----BEGIN CERTIFICATE-----
MIIGEjCCA/qgAwIBAgICEAAwDQYJKoZIhvcNAQELBQAwgaoxCzAJBgNVBAYTAkNB
MRAwDgYDVQQIDAdBbGJlcnRhMREwDwYDVQQHDAhFZG1vbnRvbjEXMBUGA1UECgwO
U29mYSBLaW5nIEluYy4xHDAaBgNVBAsME0RpeGllIE5vcm1vdXMgRGVwdC4xFjAU
BgNVBAMMDUFubmllIFJlY3Rpb24xJzAlBgkqhkiG9w0BCQEWGGFubmllcmVjdGlv
bkBzb2Zha2luZy5jYTAeFw0yMjExMjIwMjE2MjFaFw0zMjExMTkwMjE2MjFaMHAx
CzAJBgNVBAYTAkNOMRAwDgYDVQQIDAdPbnRhcmlvMQ8wDQYDVQQHDAZPdHRhd2Ex
HTAbBgNVBAoMFHJhdmlzaGFua2FyMjAyMiBJbmMuMR8wHQYDVQQDDBZ3d3cucmF2
aXNoYW5rYXIyMDIyLmNhMIICIjANBgkqhkiG9w0BAQEFAAOCAg8AMIICCgKCAgEA
q+n7cvtdnyteCErpgJ4C2cAZziofxQPRYtewkKHKKUX0IgGeHkEvKY6Z6WD2Nb3g
BnFtq5Xy29g9j3YggM71CiOElhdGretj1pUjFmnRdD4b5bRoPUR88SkSh31WJAwp
49+Z+XlC6Dwoa3gryq8jwff3yPwo7BoPebxDWsV+0vkbhnpDZD2F5gUNvQTB/VYk
GjDq7ghnaqgnomPgy0X/BtrIvCSvF+lHvv+vYRJE98PmpL2en9v4iTea0gn25yEL
H/vu7lcQUkT6DiBTKTo3Nkd+1O+b8JOph4UrmZo4684tudHWYdlV1HPza+aoK5Oh
x1PMKUkCHgCPDuwO2XbV4tQwm+YxakDlfDZgqo5H4hNK/XQGFBUR5r5UTIYtxAuw
fdv7p7HVhBpf2Uc7CRwFW5dQJxBieaQIMUN1XDKuW9chr8cx8tb8a60eTE3TbUe3
Tz0etDl02gpHp5yS2WT/20pEPxS9y3npWzLOOKT668/qIJgRWu2IAyuvjDKBzMCQ
vwyDJOLm9d4GqrcWMYKV0m4iRkoN8aV18DkWF/Byq+AEkSB3MOI/b9hSokiyAFga
pirXUMAFloEqp9yvADjnUC6gxD3UyzCfjyH7jEWlrZhZ1gnci2CnWNcTD23+/gB4
s+Vv0w03pfnuzZ5T6gTTZwHFlnIHVcs0/tWUup5tOgUCAwEAAaN7MHkwCQYDVR0T
BAIwADAsBglghkgBhvhCAQ0EHxYdT3BlblNTTCBHZW5lcmF0ZWQgQ2VydGlmaWNh
dGUwHQYDVR0OBBYEFPCtwSkr+VgXfQ4j1mAaIHx5x9N3MB8GA1UdIwQYMBaAFAar
gngaXdL+HS6011T2aEJIZv3FMA0GCSqGSIb3DQEBCwUAA4ICAQB1eWgrC7d6Ddbr
k+ApBwCuCfHczaO3YOuJVXcGf+RLuAFIP5jZQtjJPnV+btbdEsjbztSh7A8x98T0
N6faN5Jy7I0XIcVVBxYiwDnygrjehTb6lq22eiWSQf1qV9xJ5mJuZVxlIRrnW2zM
2v+auCri1R42deEqDSnM2auXdnPwjr+JGxmerjp4RWd9ZcGWfdgxzKcpXdfQd043
rFVsBb8ufQ22fCrpol1WicMwk9757Am/Jp7cJOv2M+nJi+deFaNCLkdHZekNIPnP
Q7LRNKnl/Jg3mNooEDWecWn5s47iZdTPDUO0ePlPpHdqg5fNAlk9LQuPZ3+bdCJl
oKGY7EN7vrcd6obtZZw+dU1hvwMfa6B9vX/9MspR5fXiDXHGqy3lltLKLTFq60xJ
GNE9wcZ5fnBq9GGUHF+LGyZ1igX/OHO5ii381RKXQzNVetK1m2EUcUQkBabcwd8l
hpWNXpZDGzThHPCPH2RreQ2KhZr81gdcuVdbrioVSYyzqOTr8ytV0AnuTb4z2Ew7
76fRxSewVWFAStLJunI6RXJW38mne8Fqj6SxsXHKd9danO0S0rMiC9hXtLqHauAR
nrR/2boL4faYEu+P9lcHaeiZQO2gBkdD5hAPu/ViB8K5l1SnCfrHBgBRDC3tsGIi
3c/onLXxdqMkqmrjqEt7tcCp5x6fuQ==
-----END CERTIFICATE-----
